{"main_library":{"compatibility_versions":[{"version":"0"}],"current_versions":[{"version":"0"}],"exported_symbols":[{"data":{"weak":["__ZN7discord6Client20DefaultAudioDeviceIdE","__ZN7discord6Client21DefaultPresenceScopesE","__ZN7discord6Client26DefaultCommunicationScopesE"]},"text":{"global":["_Discord_ActivityAssets_Clone","_Discord_ActivityAssets_Drop","_Discord_ActivityAssets_Init","_Discord_ActivityAssets_InviteCoverImage","_Discord_ActivityAssets_LargeImage","_Discord_ActivityAssets_LargeText","_Discord_ActivityAssets_LargeUrl","_Discord_ActivityAssets_SetInviteCoverImage","_Discord_ActivityAssets_SetLargeImage","_Discord_ActivityAssets_SetLargeText","_Discord_ActivityAssets_SetLargeUrl","_Discord_ActivityAssets_SetSmallImage","_Discord_ActivityAssets_SetSmallText","_Discord_ActivityAssets_SetSmallUrl","_Discord_ActivityAssets_SmallImage","_Discord_ActivityAssets_SmallText","_Discord_ActivityAssets_SmallUrl","_Discord_ActivityButton_Clone","_Discord_ActivityButton_Drop","_Discord_ActivityButton_Init","_Discord_ActivityButton_Label","_Discord_ActivityButton_SetLabel","_Discord_ActivityButton_SetUrl","_Discord_ActivityButton_Url","_Discord_ActivityInvite_ApplicationId","_Discord_ActivityInvite_ChannelId","_Discord_ActivityInvite_Clone","_Discord_ActivityInvite_Drop","_Discord_ActivityInvite_Init","_Discord_ActivityInvite_IsValid","_Discord_ActivityInvite_MessageId","_Discord_ActivityInvite_ParentApplicationId","_Discord_ActivityInvite_PartyId","_Discord_ActivityInvite_SenderId","_Discord_ActivityInvite_SessionId","_Discord_ActivityInvite_SetApplicationId","_Discord_ActivityInvite_SetChannelId","_Discord_ActivityInvite_SetIsValid","_Discord_ActivityInvite_SetMessageId","_Discord_ActivityInvite_SetParentApplicationId","_Discord_ActivityInvite_SetPartyId","_Discord_ActivityInvite_SetSenderId","_Discord_ActivityInvite_SetSessionId","_Discord_ActivityInvite_SetType","_Discord_ActivityInvite_Type","_Discord_ActivityParty_Clone","_Discord_ActivityParty_CurrentSize","_Discord_ActivityParty_Drop","_Discord_ActivityParty_Id","_Discord_ActivityParty_Init","_Discord_ActivityParty_MaxSize","_Discord_ActivityParty_Privacy","_Discord_ActivityParty_SetCurrentSize","_Discord_ActivityParty_SetId","_Discord_ActivityParty_SetMaxSize","_Discord_ActivityParty_SetPrivacy","_Discord_ActivitySecrets_Clone","_Discord_ActivitySecrets_Drop","_Discord_ActivitySecrets_Init","_Discord_ActivitySecrets_Join","_Discord_ActivitySecrets_SetJoin","_Discord_ActivityTimestamps_Clone","_Discord_ActivityTimestamps_Drop","_Discord_ActivityTimestamps_End","_Discord_ActivityTimestamps_Init","_Discord_ActivityTimestamps_SetEnd","_Discord_ActivityTimestamps_SetStart","_Discord_ActivityTimestamps_Start","_Discord_Activity_AddButton","_Discord_Activity_ApplicationId","_Discord_Activity_Assets","_Discord_Activity_Clone","_Discord_Activity_Details","_Discord_Activity_DetailsUrl","_Discord_Activity_Drop","_Discord_Activity_Equals","_Discord_Activity_GetButtons","_Discord_Activity_Init","_Discord_Activity_Name","_Discord_Activity_ParentApplicationId","_Discord_Activity_Party","_Discord_Activity_Secrets","_Discord_Activity_SetApplicationId","_Discord_Activity_SetAssets","_Discord_Activity_SetDetails","_Discord_Activity_SetDetailsUrl","_Discord_Activity_SetName","_Discord_Activity_SetParentApplicationId","_Discord_Activity_SetParty","_Discord_Activity_SetSecrets","_Discord_Activity_SetState","_Discord_Activity_SetStateUrl","_Discord_Activity_SetStatusDisplayType","_Discord_Activity_SetSupportedPlatforms","_Discord_Activity_SetTimestamps","_Discord_Activity_SetType","_Discord_Activity_State","_Discord_Activity_StateUrl","_Discord_Activity_StatusDisplayType","_Discord_Activity_SupportedPlatforms","_Discord_Activity_Timestamps","_Discord_Activity_Type","_Discord_AdditionalContent_Clone","_Discord_AdditionalContent_Count","_Discord_AdditionalContent_Drop","_Discord_AdditionalContent_Equals","_Discord_AdditionalContent_Init","_Discord_AdditionalContent_SetCount","_Discord_AdditionalContent_SetTitle","_Discord_AdditionalContent_SetType","_Discord_AdditionalContent_Title","_Discord_AdditionalContent_Type","_Discord_AdditionalContent_TypeToString","_Discord_Alloc","_Discord_AudioDevice_Clone","_Discord_AudioDevice_Drop","_Discord_AudioDevice_Equals","_Discord_AudioDevice_Id","_Discord_AudioDevice_IsDefault","_Discord_AudioDevice_Name","_Discord_AudioDevice_SetId","_Discord_AudioDevice_SetIsDefault","_Discord_AudioDevice_SetName","_Discord_AuthorizationArgs_ClientId","_Discord_AuthorizationArgs_Clone","_Discord_AuthorizationArgs_CodeChallenge","_Discord_AuthorizationArgs_CustomSchemeParam","_Discord_AuthorizationArgs_Drop","_Discord_AuthorizationArgs_Init","_Discord_AuthorizationArgs_IntegrationType","_Discord_AuthorizationArgs_Nonce","_Discord_AuthorizationArgs_Scopes","_Discord_AuthorizationArgs_SetClientId","_Discord_AuthorizationArgs_SetCodeChallenge","_Discord_AuthorizationArgs_SetCustomSchemeParam","_Discord_AuthorizationArgs_SetIntegrationType","_Discord_AuthorizationArgs_SetNonce","_Discord_AuthorizationArgs_SetScopes","_Discord_AuthorizationArgs_SetState","_Discord_AuthorizationArgs_State","_Discord_AuthorizationCodeChallenge_Challenge","_Discord_AuthorizationCodeChallenge_Clone","_Discord_AuthorizationCodeChallenge_Drop","_Discord_AuthorizationCodeChallenge_Init","_Discord_AuthorizationCodeChallenge_Method","_Discord_AuthorizationCodeChallenge_SetChallenge","_Discord_AuthorizationCodeChallenge_SetMethod","_Discord_AuthorizationCodeVerifier_Challenge","_Discord_AuthorizationCodeVerifier_Clone","_Discord_AuthorizationCodeVerifier_Drop","_Discord_AuthorizationCodeVerifier_SetChallenge","_Discord_AuthorizationCodeVerifier_SetVerifier","_Discord_AuthorizationCodeVerifier_Verifier","_Discord_CallInfoHandle_ChannelId","_Discord_CallInfoHandle_Clone","_Discord_CallInfoHandle_Drop","_Discord_CallInfoHandle_GetParticipants","_Discord_CallInfoHandle_GetVoiceStateHandle","_Discord_CallInfoHandle_GuildId","_Discord_Call_Clone","_Discord_Call_Drop","_Discord_Call_ErrorToString","_Discord_Call_GetAudioMode","_Discord_Call_GetChannelId","_Discord_Call_GetGuildId","_Discord_Call_GetLocalMute","_Discord_Call_GetPTTActive","_Discord_Call_GetPTTReleaseDelay","_Discord_Call_GetParticipantVolume","_Discord_Call_GetParticipants","_Discord_Call_GetSelfDeaf","_Discord_Call_GetSelfMute","_Discord_Call_GetStatus","_Discord_Call_GetVADThreshold","_Discord_Call_GetVoiceStateHandle","_Discord_Call_SetAudioMode","_Discord_Call_SetLocalMute","_Discord_Call_SetOnVoiceStateChangedCallback","_Discord_Call_SetPTTActive","_Discord_Call_SetPTTReleaseDelay","_Discord_Call_SetParticipantChangedCallback","_Discord_Call_SetParticipantVolume","_Discord_Call_SetSelfDeaf","_Discord_Call_SetSelfMute","_Discord_Call_SetSpeakingStatusChangedCallback","_Discord_Call_SetStatusChangedCallback","_Discord_Call_SetVADThreshold","_Discord_Call_StatusToString","_Discord_ChannelHandle_Clone","_Discord_ChannelHandle_Drop","_Discord_ChannelHandle_GetCallInfoHandle","_Discord_ChannelHandle_Id","_Discord_ChannelHandle_Name","_Discord_ChannelHandle_Recipients","_Discord_ChannelHandle_Type","_Discord_ClientCreateOptions_ApiBase","_Discord_ClientCreateOptions_Clone","_Discord_ClientCreateOptions_CpuAffinityMask","_Discord_ClientCreateOptions_Drop","_Discord_ClientCreateOptions_ExperimentalAndroidPreventCommsForBluetooth","_Discord_ClientCreateOptions_ExperimentalAudioSystem","_Discord_ClientCreateOptions_Init","_Discord_ClientCreateOptions_SetApiBase","_Discord_ClientCreateOptions_SetCpuAffinityMask","_Discord_ClientCreateOptions_SetExperimentalAndroidPreventCommsForBluetooth","_Discord_ClientCreateOptions_SetExperimentalAudioSystem","_Discord_ClientCreateOptions_SetWebBase","_Discord_ClientCreateOptions_WebBase","_Discord_ClientResult_Clone","_Discord_ClientResult_Drop","_Discord_ClientResult_Error","_Discord_ClientResult_ErrorCode","_Discord_ClientResult_ResponseBody","_Discord_ClientResult_RetryAfter","_Discord_ClientResult_Retryable","_Discord_ClientResult_SetError","_Discord_ClientResult_SetErrorCode","_Discord_ClientResult_SetResponseBody","_Discord_ClientResult_SetRetryAfter","_Discord_ClientResult_SetRetryable","_Discord_ClientResult_SetStatus","_Discord_ClientResult_SetSuccessful","_Discord_ClientResult_SetType","_Discord_ClientResult_Status","_Discord_ClientResult_Successful","_Discord_ClientResult_ToString","_Discord_ClientResult_Type","_Discord_Client_AbortAuthorize","_Discord_Client_AbortGetTokenFromDevice","_Discord_Client_AcceptActivityInvite","_Discord_Client_AcceptDiscordFriendRequest","_Discord_Client_AcceptGameFriendRequest","_Discord_Client_AddLogCallback","_Discord_Client_AddOrUpdateLobbyMember","_Discord_Client_AddVoiceLogCallback","_Discord_Client_Authorize","_Discord_Client_BlockUser","_Discord_Client_CanOpenMessageInDiscord","_Discord_Client_CancelDiscordFriendRequest","_Discord_Client_CancelGameFriendRequest","_Discord_Client_ClearRichPresence","_Discord_Client_CloseAuthorizeDeviceScreen","_Discord_Client_Connect","_Discord_Client_CreateAuthorizationCodeVerifier","_Discord_Client_CreateNewLobby","_Discord_Client_CreateOrJoinLobby","_Discord_Client_CreateOrJoinLobbyWithMetadata","_Discord_Client_DeleteLobby","_Discord_Client_DeleteUserMessage","_Discord_Client_Disconnect","_Discord_Client_Drop","_Discord_Client_EditLobby","_Discord_Client_EditUserMessage","_Discord_Client_EndCall","_Discord_Client_EndCalls","_Discord_Client_ErrorToString","_Discord_Client_ExchangeChildToken","_Discord_Client_FetchCurrentUser","_Discord_Client_ForceCrash_ForTest","_Discord_Client_GetApplicationId","_Discord_Client_GetCall","_Discord_Client_GetCalls","_Discord_Client_GetChannelHandle","_Discord_Client_GetCurrentInputDevice","_Discord_Client_GetCurrentOutputDevice","_Discord_Client_GetCurrentUser","_Discord_Client_GetCurrentUserV2","_Discord_Client_GetDefaultAudioDeviceId","_Discord_Client_GetDefaultCommunicationScopes","_Discord_Client_GetDefaultPresenceScopes","_Discord_Client_GetDiscordClientConnectedUser","_Discord_Client_GetGuildChannels","_Discord_Client_GetGuildHandle","_Discord_Client_GetGuildIds","_Discord_Client_GetInputDevices","_Discord_Client_GetInputVolume","_Discord_Client_GetLobbyHandle","_Discord_Client_GetLobbyIds","_Discord_Client_GetLobbyMessagesWithLimit","_Discord_Client_GetMessageHandle","_Discord_Client_GetOutputDevices","_Discord_Client_GetOutputVolume","_Discord_Client_GetProvisionalToken","_Discord_Client_GetProvisionalTokenBotAPI","_Discord_Client_GetRelationshipHandle","_Discord_Client_GetRelationships","_Discord_Client_GetRelationshipsByGroup","_Discord_Client_GetSelfDeafAll","_Discord_Client_GetSelfMuteAll","_Discord_Client_GetStatus","_Discord_Client_GetToken","_Discord_Client_GetTokenFromDevice","_Discord_Client_GetTokenFromDeviceProvisionalMerge","_Discord_Client_GetTokenFromProvisionalMerge","_Discord_Client_GetUser","_Discord_Client_GetUserGuilds","_Discord_Client_GetUserMessageSummaries","_Discord_Client_GetUserMessagesWithLimit","_Discord_Client_GetVersionHash","_Discord_Client_GetVersionMajor","_Discord_Client_GetVersionMinor","_Discord_Client_GetVersionPatch","_Discord_Client_Init","_Discord_Client_InitWithBases","_Discord_Client_InitWithOptions","_Discord_Client_IsAuthenticated","_Discord_Client_IsDiscordAppInstalled","_Discord_Client_JoinLinkedLobbyGuild","_Discord_Client_LeaveLobby","_Discord_Client_LinkChannelToLobby","_Discord_Client_OpenAuthorizeDeviceScreen","_Discord_Client_OpenConnectedGamesSettingsInDiscord","_Discord_Client_OpenMessageInDiscord","_Discord_Client_PerformOnThreadWithString_ForTest","_Discord_Client_ProvisionalUserMergeCompleted","_Discord_Client_RefreshToken","_Discord_Client_RegisterAuthorizeRequestCallback","_Discord_Client_RegisterLaunchCommand","_Discord_Client_RegisterLaunchSteamApplication","_Discord_Client_RejectDiscordFriendRequest","_Discord_Client_RejectGameFriendRequest","_Discord_Client_RemoveAuthorizeRequestCallback","_Discord_Client_RemoveDiscordAndGameFriend","_Discord_Client_RemoveGameFriend","_Discord_Client_RemoveLobbyMember","_Discord_Client_RevokeToken","_Discord_Client_SearchFriendsByUsername","_Discord_Client_SendActivityInvite","_Discord_Client_SendActivityJoinRequest","_Discord_Client_SendActivityJoinRequestReply","_Discord_Client_SendDiscordFriendRequest","_Discord_Client_SendDiscordFriendRequestById","_Discord_Client_SendGameFriendRequest","_Discord_Client_SendGameFriendRequestById","_Discord_Client_SendLobbyMessage","_Discord_Client_SendLobbyMessageWithMetadata","_Discord_Client_SendUserMessage","_Discord_Client_SendUserMessageWithMetadata","_Discord_Client_SetActivityInviteCreatedCallback","_Discord_Client_SetActivityInviteUpdatedCallback","_Discord_Client_SetActivityJoinCallback","_Discord_Client_SetActivityJoinWithApplicationCallback","_Discord_Client_SetAecDump","_Discord_Client_SetApplicationId","_Discord_Client_SetAuthorizeDeviceScreenClosedCallback","_Discord_Client_SetAutomaticGainControl","_Discord_Client_SetDeviceChangeCallback","_Discord_Client_SetEchoCancellation","_Discord_Client_SetEngineManagedAudioSession","_Discord_Client_SetGameWindowPid","_Discord_Client_SetHttpRequestTimeout","_Discord_Client_SetInputDevice","_Discord_Client_SetInputVolume","_Discord_Client_SetLobbyCreatedCallback","_Discord_Client_SetLobbyDeletedCallback","_Discord_Client_SetLobbyMemberAddedCallback","_Discord_Client_SetLobbyMemberRemovedCallback","_Discord_Client_SetLobbyMemberUpdatedCallback","_Discord_Client_SetLobbyUpdatedCallback","_Discord_Client_SetLogDir","_Discord_Client_SetMessageCreatedCallback","_Discord_Client_SetMessageDeletedCallback","_Discord_Client_SetMessageUpdatedCallback","_Discord_Client_SetNoAudioInputCallback","_Discord_Client_SetNoAudioInputThreshold","_Discord_Client_SetNoiseSuppression","_Discord_Client_SetOnlineStatus","_Discord_Client_SetOpusHardwareCoding","_Discord_Client_SetOutputDevice","_Discord_Client_SetOutputVolume","_Discord_Client_SetRelationshipCreatedCallback","_Discord_Client_SetRelationshipDeletedCallback","_Discord_Client_SetRelationshipGroupsUpdatedCallback","_Discord_Client_SetSelfDeafAll","_Discord_Client_SetSelfMuteAll","_Discord_Client_SetShowingChat","_Discord_Client_SetSpeakerMode","_Discord_Client_SetStatusChangedCallback","_Discord_Client_SetThreadPriority","_Discord_Client_SetTokenExpirationCallback","_Discord_Client_SetUserUpdatedCallback","_Discord_Client_SetVoiceLogDir","_Discord_Client_SetVoiceParticipantChangedCallback","_Discord_Client_ShowAudioRoutePicker","_Discord_Client_StartCall","_Discord_Client_StartCallWithAudioCallbacks","_Discord_Client_StatusToString","_Discord_Client_ThreadToString","_Discord_Client_UnblockUser","_Discord_Client_UnlinkChannelFromLobby","_Discord_Client_UnmergeIntoProvisionalAccount","_Discord_Client_UpdateProvisionalAccountDisplayName","_Discord_Client_UpdateRichPresence","_Discord_Client_UpdateToken","_Discord_Client_UpdateUserApplicationProfile","_Discord_DeviceAuthorizationArgs_ClientId","_Discord_DeviceAuthorizationArgs_Clone","_Discord_DeviceAuthorizationArgs_Drop","_Discord_DeviceAuthorizationArgs_Init","_Discord_DeviceAuthorizationArgs_Scopes","_Discord_DeviceAuthorizationArgs_SetClientId","_Discord_DeviceAuthorizationArgs_SetScopes","_Discord_Free","_Discord_FreeProperties","_Discord_GuildChannel_Clone","_Discord_GuildChannel_Drop","_Discord_GuildChannel_Id","_Discord_GuildChannel_IsLinkable","_Discord_GuildChannel_IsViewableAndWriteableByAllMembers","_Discord_GuildChannel_LinkedLobby","_Discord_GuildChannel_Name","_Discord_GuildChannel_ParentId","_Discord_GuildChannel_Position","_Discord_GuildChannel_SetId","_Discord_GuildChannel_SetIsLinkable","_Discord_GuildChannel_SetIsViewableAndWriteableByAllMembers","_Discord_GuildChannel_SetLinkedLobby","_Discord_GuildChannel_SetName","_Discord_GuildChannel_SetParentId","_Discord_GuildChannel_SetPosition","_Discord_GuildChannel_SetType","_Discord_GuildChannel_Type","_Discord_GuildHandle_ChannelIds","_Discord_GuildHandle_Clone","_Discord_GuildHandle_Drop","_Discord_GuildHandle_GetGuildMemberHandle","_Discord_GuildHandle_GuildMemberIds","_Discord_GuildHandle_IconUrl","_Discord_GuildHandle_Id","_Discord_GuildHandle_Name","_Discord_GuildHandle_PremiumTier","_Discord_GuildHandle_Unavailable","_Discord_GuildMemberHandle_Avatar","_Discord_GuildMemberHandle_AvatarUrl","_Discord_GuildMemberHandle_Clone","_Discord_GuildMemberHandle_Deaf","_Discord_GuildMemberHandle_Drop","_Discord_GuildMemberHandle_IsGuest","_Discord_GuildMemberHandle_Mute","_Discord_GuildMemberHandle_NickName","_Discord_GuildMemberHandle_SelfDeaf","_Discord_GuildMemberHandle_SelfMute","_Discord_GuildMinimal_Clone","_Discord_GuildMinimal_Drop","_Discord_GuildMinimal_Id","_Discord_GuildMinimal_Name","_Discord_GuildMinimal_SetId","_Discord_GuildMinimal_SetName","_Discord_LinkedChannel_Clone","_Discord_LinkedChannel_Drop","_Discord_LinkedChannel_GuildId","_Discord_LinkedChannel_Id","_Discord_LinkedChannel_Name","_Discord_LinkedChannel_SetGuildId","_Discord_LinkedChannel_SetId","_Discord_LinkedChannel_SetName","_Discord_LinkedLobby_ApplicationId","_Discord_LinkedLobby_Clone","_Discord_LinkedLobby_Drop","_Discord_LinkedLobby_Init","_Discord_LinkedLobby_LobbyId","_Discord_LinkedLobby_SetApplicationId","_Discord_LinkedLobby_SetLobbyId","_Discord_LobbyHandle_Clone","_Discord_LobbyHandle_Drop","_Discord_LobbyHandle_GetCallInfoHandle","_Discord_LobbyHandle_GetLobbyMemberHandle","_Discord_LobbyHandle_Id","_Discord_LobbyHandle_LinkedChannel","_Discord_LobbyHandle_LobbyMemberIds","_Discord_LobbyHandle_LobbyMembers","_Discord_LobbyHandle_Metadata","_Discord_LobbyMemberHandle_CanLinkLobby","_Discord_LobbyMemberHandle_Clone","_Discord_LobbyMemberHandle_Connected","_Discord_LobbyMemberHandle_Drop","_Discord_LobbyMemberHandle_Id","_Discord_LobbyMemberHandle_Metadata","_Discord_LobbyMemberHandle_User","_Discord_MessageHandle_AdditionalContent","_Discord_MessageHandle_ApplicationId","_Discord_MessageHandle_Author","_Discord_MessageHandle_AuthorId","_Discord_MessageHandle_Channel","_Discord_MessageHandle_ChannelId","_Discord_MessageHandle_Clone","_Discord_MessageHandle_Content","_Discord_MessageHandle_DisclosureType","_Discord_MessageHandle_Drop","_Discord_MessageHandle_EditedTimestamp","_Discord_MessageHandle_Id","_Discord_MessageHandle_Lobby","_Discord_MessageHandle_Metadata","_Discord_MessageHandle_ModerationMetadata","_Discord_MessageHandle_RawContent","_Discord_MessageHandle_Recipient","_Discord_MessageHandle_RecipientId","_Discord_MessageHandle_SentFromGame","_Discord_MessageHandle_SentTimestamp","_Discord_RelationshipHandle_Clone","_Discord_RelationshipHandle_DiscordRelationshipType","_Discord_RelationshipHandle_Drop","_Discord_RelationshipHandle_GameRelationshipType","_Discord_RelationshipHandle_HasPlayedGame","_Discord_RelationshipHandle_Id","_Discord_RelationshipHandle_IsSpamRequest","_Discord_RelationshipHandle_User","_Discord_ResetCallbacks","_Discord_RunCallbacks","_Discord_SetFreeThreaded","_Discord_UserApplicationProfileHandle_AvatarHash","_Discord_UserApplicationProfileHandle_Clone","_Discord_UserApplicationProfileHandle_Drop","_Discord_UserApplicationProfileHandle_Metadata","_Discord_UserApplicationProfileHandle_ProviderId","_Discord_UserApplicationProfileHandle_ProviderIssuedUserId","_Discord_UserApplicationProfileHandle_ProviderType","_Discord_UserApplicationProfileHandle_Username","_Discord_UserHandle_Avatar","_Discord_UserHandle_AvatarTypeToString","_Discord_UserHandle_AvatarUrl","_Discord_UserHandle_Clone","_Discord_UserHandle_DisplayName","_Discord_UserHandle_Drop","_Discord_UserHandle_GameActivity","_Discord_UserHandle_GlobalName","_Discord_UserHandle_Id","_Discord_UserHandle_IsProvisional","_Discord_UserHandle_Relationship","_Discord_UserHandle_Status","_Discord_UserHandle_UserApplicationProfiles","_Discord_UserHandle_Username","_Discord_UserMessageSummary_Clone","_Discord_UserMessageSummary_Drop","_Discord_UserMessageSummary_LastMessageId","_Discord_UserMessageSummary_UserId","_Discord_VADThresholdSettings_Automatic","_Discord_VADThresholdSettings_Drop","_Discord_VADThresholdSettings_SetAutomatic","_Discord_VADThresholdSettings_SetVadThreshold","_Discord_VADThresholdSettings_VadThreshold","_Discord_VoiceStateHandle_Clone","_Discord_VoiceStateHandle_Drop","_Discord_VoiceStateHandle_SelfDeaf","_Discord_VoiceStateHandle_SelfMute","__ZN7Discord10GetDevicesENSt3__18functionIFvRKNS0_6vectorIN7discord5media22AudioDeviceDescriptionENS0_9allocatorIS5_EEEESA_RKNS2_INS4_27VideoInputDeviceDescriptionENS6_ISB_EEEEEEE","__ZN7Discord10SetAecDumpEb","__ZN7Discord11SetLoopbackEbRKNSt3__18functionIFvfjEEE","__ZN7Discord12ConnectToLogERKNSt3__112basic_stringIcNS0_11char_traitsIcEENS0_9allocatorIcEEEENS0_8functionIFvRKN7discord14ConnectionInfoES8_EEE","__ZN7Discord12SetMicVolumeEf","__ZN7Discord13SetAv1EnabledEb","__ZN7Discord14AddLogCallbackENSt3__18functionIFvRKNS0_12basic_stringIcNS0_11char_traitsIcEENS0_9allocatorIcEEEEiEEEi","__ZN7Discord14RankRtcRegionsENSt3__16vectorIN7discord16RtcRegionWithIpsENS0_9allocatorIS3_EEEENS0_8functionIFvNS1_INS0_12basic_stringIcNS0_11char_traitsIcEENS4_IcEEEENS4_ISC_EEEEEEE","__ZN7Discord14SetH264EnabledEb","__ZN7Discord14SetH265EnabledEb","__ZN7Discord15PingVoiceThreadENSt3__18functionIFvvEEE","__ZN7Discord15WriteConsoleLogERKNSt3__112basic_stringIcNS0_11char_traitsIcEENS0_9allocatorIcEEEES8_","__ZN7Discord16EnableBuiltInAECEb","__ZN7Discord16GetDeviceOSMutedENSt3__112basic_stringIcNS0_11char_traitsIcEENS0_9allocatorIcEEEENS0_8functionIFvNS0_8optionalIbEEEEE","__ZN7Discord16PollQueueMetricsENSt3__18functionIFvN7discord2uv12QueueMetricsEEEE","__ZN7Discord16SetPlayoutDeviceENSt3__112basic_stringIcNS0_11char_traitsIcEENS0_9allocatorIcEEEE","__ZN7Discord16SetPlayoutDeviceEi","__ZN7Discord16SetSpeakerVolumeEf","__ZN7Discord16UpdateFieldTrialENSt3__112basic_stringIcNS0_11char_traitsIcEENS0_9allocatorIcEEEES6_","__ZN7Discord17GetAudioSubsystemENSt3__18functionIFvRKNS0_12basic_stringIcNS0_11char_traitsIcEENS0_9allocatorIcEEEES9_EEE","__ZN7Discord17GetDeviceOSVolumeENSt3__112basic_stringIcNS0_11char_traitsIcEENS0_9allocatorIcEEEENS0_8functionIFvNS0_8optionalIfEEEEE","__ZN7Discord17GetPlayoutDevicesENSt3__18functionIFvRKNS0_6vectorIN7discord5media22AudioDeviceDescriptionENS0_9allocatorIS5_EEEEEEE","__ZN7Discord17GetScreenPreviewsEmmNSt3__18functionIFvRKNS0_6vectorIN7discord5media13SourcePreviewENS0_9allocatorIS5_EEEEEEE","__ZN7Discord17GetWindowPreviewsEmmNSt3__18functionIFvRKNS0_6vectorIN7discord5media13SourcePreviewENS0_9allocatorIS5_EEEEEEE","__ZN7Discord17SetVADAfterWebrtcEb","__ZN7Discord18AcquireAudioEngineENSt3__18functionIFvvEEE","__ZN7Discord18ReleaseAudioEngineENSt3__18functionIFvvEEE","__ZN7Discord18SetRecordingDeviceENSt3__112basic_stringIcNS0_11char_traitsIcEENS0_9allocatorIcEEEE","__ZN7Discord18SetRecordingDeviceEi","__ZN7Discord18SetVideoOutputSinkENSt3__112basic_stringIcNS0_11char_traitsIcEENS0_9allocatorIcEEEENS0_8functionIFbRKN7discord5media14VideoFrameRgbaEEEE","__ZN7Discord18UpdateAudioSessionEbNSt3__112basic_stringIcNS0_11char_traitsIcEENS0_9allocatorIcEEEEb","__ZN7Discord19GetRecordingDevicesENSt3__18functionIFvRKNS0_6vectorIN7discord5media22AudioDeviceDescriptionENS0_9allocatorIS5_EEEEEEE","__ZN7Discord19SetEchoCancellationEb","__ZN7Discord19SetEchoCancellationEi","__ZN7Discord19SetKeepAliveChannelEb","__ZN7Discord19SetNoiseSuppressionEb","__ZN7Discord19SetNoiseSuppressionEi","__ZN7Discord19SetVideoInputDeviceENSt3__112basic_stringIcNS0_11char_traitsIcEENS0_9allocatorIcEEEE","__ZN7Discord19SetVideoInputDeviceEi","__ZN7Discord20GetVideoInputDevicesENSt3__18functionIFvRKNS0_6vectorIN7discord5media27VideoInputDeviceDescriptionENS0_9allocatorIS5_EEEEEEE","__ZN7Discord20SetAudioInputEnabledEb","__ZN7Discord20SetDuckingPreferenceEb","__ZN7Discord20SetNoiseCancellationEb","__ZN7Discord20WriteAudioDebugStateEv","__ZN7Discord22SetMaybePreprocessMuteEb","__ZN7Discord22SetVoiceFiltersEnabledEb","__ZN7Discord22SetVoiceThreadPriorityEi","__ZN7Discord23GetCurrentPlayoutDeviceENSt3__18functionIFvRKN7discord5media22AudioDeviceDescriptionEEEE","__ZN7Discord23GetSystemMicrophoneModeENSt3__18functionIFvNS0_12basic_stringIcNS0_11char_traitsIcEENS0_9allocatorIcEEEEEEE","__ZN7Discord23SetAutomaticGainControlEb","__ZN7Discord23SetAutomaticGainControlEi","__ZN7Discord23SetDeviceChangeCallbackENSt3__18functionIFvRKNS0_6vectorIN7discord5media22AudioDeviceDescriptionENS0_9allocatorIS5_EEEESA_RKNS2_INS4_27VideoInputDeviceDescriptionENS6_ISB_EEEEEEE","__ZN7Discord23SetLoopbackUseAudioModeEb","__ZN7Discord23SetMaxSyncDelayOverrideEi","__ZN7Discord23SetNoAudioInputCallbackENSt3__18functionIFvbEEE","__ZN7Discord23SetSidechainCompressionEb","__ZN7Discord23StopRecordingRawSamplesEv","__ZN7Discord24AddDirectVideoOutputSinkENSt3__112basic_stringIcNS0_11char_traitsIcEENS0_9allocatorIcEEEE","__ZN7Discord24ApplyMediaFilterSettingsENSt3__13mapINS0_12basic_stringIcNS0_11char_traitsIcEENS0_9allocatorIcEEEEN7discord14FilterSettingsENS0_4lessIS7_EENS5_INS0_4pairIKS7_S9_EEEEEENS0_8functionIFvvEEE","__ZN7Discord24SetIdleJitterBufferFlushEb","__ZN7Discord24SetNoAudioInputThresholdEf","__ZN7Discord24StartRecordingRawSamplesENSt3__18functionIFvNS0_6vectorIsNS0_9allocatorIsEEEEmiEEE","__ZN7Discord25GetCurrentRecordingDeviceENSt3__18functionIFvRKN7discord5media22AudioDeviceDescriptionEEEE","__ZN7Discord25GetMLSTransientPrivateKeyEi","__ZN7Discord25GetNoiseCancellationStatsENSt3__18functionIFvNS0_12basic_stringIcNS0_11char_traitsIcEENS0_9allocatorIcEEEEEEE","__ZN7Discord25SetAsyncClipsSourceDeinitEb","__ZN7Discord25SetHasFullbandPerformanceEb","__ZN7Discord26SetEchoCancellationPreEchoEb","__ZN7Discord26SetVideoCodecErrorCallbackENSt3__18functionIFvN7discord5media19VideoCodecErrorInfoEEEE","__ZN7Discord26SignalVideoOutputSinkReadyENSt3__112basic_stringIcNS0_11char_traitsIcEENS0_9allocatorIcEEEE","__ZN7Discord27RemoveDirectVideoOutputSinkENSt3__112basic_stringIcNS0_11char_traitsIcEENS0_9allocatorIcEEEE","__ZN7Discord28SetAsyncVideoInputDeviceInitEb","__ZN7Discord29NotifyCallKitCallStateChangedEb","__ZN7Discord29SetAutomaticGainControlConfigEN7discord5media20GainControllerConfigE","__ZN7Discord29SetVoiceFiltersFailedCallbackENSt3__18functionIFvNS0_12basic_stringIcNS0_11char_traitsIcEENS0_9allocatorIcEEEEEEE","__ZN7Discord31SetNoiseCancellationEnableStatsEb","__ZN7Discord32ShowSystemCaptureConfigurationUIENSt3__112basic_stringIcNS0_11char_traitsIcEENS0_9allocatorIcEEEE","__ZN7Discord33ApplySidechainCompressionSettingsEN7discord28SidechainCompressionSettingsE","__ZN7Discord33SetAudioDeviceModuleErrorCallbackENSt3__18functionIFviNS0_12basic_stringIcNS0_11char_traitsIcEENS0_9allocatorIcEEEEEEE","__ZN7Discord33SetLocalVoiceLevelChangedCallbackERKNSt3__18functionIFvfjEEE","__ZN7Discord33SetLoopbackPlaybackGainMultiplierEf","__ZN7Discord35SetAudioInputBypassSystemProcessingEb","__ZN7Discord35SetAudioInputInitializationCallbackENSt3__18functionIFvRKN7discord5media28AudioInputInitializationInfoEEEE","__ZN7Discord35SetNativeScreenSharePickerCallbacksENSt3__18functionIFvbN7discord8OptionalINS2_5media14CaptureContentEEEEEENS1_IFvbEEENS1_IFvNS0_12basic_stringIcNS0_11char_traitsIcEENS0_9allocatorIcEEEEEEE","__ZN7Discord35SetNoiseCancellationAfterProcessingEb","__ZN7Discord35SetVideoInputInitializationCallbackENSt3__18functionIFvRKN7discord5media28VideoInputInitializationInfoEEEE","__ZN7Discord36SetNoiseCancellationDuringProcessingEb","__ZN7Discord37PresentNativeDesktopVideoSourcePickerERKNSt3__112basic_stringIcNS0_11char_traitsIcEENS0_9allocatorIcEEEE","__ZN7Discord37SetSystemMicrophoneModeChangeCallbackENSt3__18functionIFvNS0_12basic_stringIcNS0_11char_traitsIcEENS0_9allocatorIcEEEEEEE","__ZN7Discord39SetNativeDesktopVideoSourcePickerActiveEb","__ZN7Discord43ReleaseNativeDesktopVideoSourcePickerStreamEv","__ZN7Discord7ConnectERKNSt3__112basic_stringIcNS0_11char_traitsIcEENS0_9allocatorIcEEEERKN7discord23BridgeConnectionOptionsENS0_8functionIFvRKNS9_14ConnectionInfoES8_EEENSD_IFvjEEENSD_IFvS8_PKsmimjRbfEEENSD_IFvPsmimEEE","__ZN7DiscordC1E13DiscordConfig","__ZN7DiscordC2E13DiscordConfig","__ZN7DiscordD1Ev","__ZN7DiscordD2Ev","__ZN7discord10UserHandle18AvatarTypeToStringENS0_10AvatarTypeE","__ZN7discord10UserHandleC1ENSt3__110shared_ptrINS_4UserEEENS1_8weak_ptrIKNS_13GatewaySocketEEE","__ZN7discord10UserHandleC2ENSt3__110shared_ptrINS_4UserEEENS1_8weak_ptrIKNS_13GatewaySocketEEE","__ZN7discord11GuildHandleC1ENSt3__110shared_ptrINS_5GuildEEENS1_8weak_ptrIKNS_13GatewaySocketEEE","__ZN7discord11GuildHandleC2ENSt3__110shared_ptrINS_5GuildEEENS1_8weak_ptrIKNS_13GatewaySocketEEE","__ZN7discord11LobbyHandleC1ENSt3__110shared_ptrINS_5LobbyEEENS2_IKNS_5state7LobbiesEEENS1_8weak_ptrIKNS_13GatewaySocketEEE","__ZN7discord11LobbyHandleC2ENSt3__110shared_ptrINS_5LobbyEEENS2_IKNS_5state7LobbiesEEENS1_8weak_ptrIKNS_13GatewaySocketEEE","__ZN7discord11MediaEngineC1ENSt3__110shared_ptrINS_2uv17ThreadedEventLoopEEERKNS_5media12EngineConfigE","__ZN7discord11MediaEngineC2ENSt3__110shared_ptrINS_2uv17ThreadedEventLoopEEERKNS_5media12EngineConfigE","__ZN7discord12Relationship8FromJsonERKN4Json5ValueE","__ZN7discord12RelationshipC1ERKN4Json5ValueE","__ZN7discord12RelationshipC2ERKN4Json5ValueE","__ZN7discord13ChannelHandleC1ENSt3__110shared_ptrINS_7ChannelEEENS1_8weak_ptrIKNS_13GatewaySocketEEE","__ZN7discord13ChannelHandleC2ENSt3__110shared_ptrINS_7ChannelEEENS1_8weak_ptrIKNS_13GatewaySocketEEE","__ZN7discord13MessageHandleC1ENSt3__110shared_ptrINS_7MessageEEENS1_8weak_ptrIKNS_13GatewaySocketEEE","__ZN7discord13MessageHandleC2ENSt3__110shared_ptrINS_7MessageEEENS1_8weak_ptrIKNS_13GatewaySocketEEE","__ZN7discord14CallInfoHandleC1ENSt3__110shared_ptrINS_8CallInfoEEENS2_IKNS_5state5CallsEEE","__ZN7discord14CallInfoHandleC2ENSt3__110shared_ptrINS_8CallInfoEEENS2_IKNS_5state5CallsEEE","__ZN7discord14PresenceHandleC1ENSt3__110shared_ptrINS_8PresenceEEENS2_IKNS_5state5UsersEEE","__ZN7discord14PresenceHandleC2ENSt3__110shared_ptrINS_8PresenceEEENS2_IKNS_5state5UsersEEE","__ZN7discord16StreamInfoHandleC1ENSt3__110shared_ptrINS_10StreamInfoEEENS2_IKNS_5state7StreamsEEE","__ZN7discord16StreamInfoHandleC2ENSt3__110shared_ptrINS_10StreamInfoEEENS2_IKNS_5state7StreamsEEE","__ZN7discord16VoiceStateHandleC1ENSt3__110shared_ptrINS_10VoiceStateEEENS2_IKNS_5state5CallsEEE","__ZN7discord16VoiceStateHandleC2ENSt3__110shared_ptrINS_10VoiceStateEEENS2_IKNS_5state5CallsEEE","__ZN7discord17GuildMemberHandleC1ENSt3__110shared_ptrINS_11GuildMemberEEENS1_8weak_ptrIKNS_13GatewaySocketEEE","__ZN7discord17GuildMemberHandleC2ENSt3__110shared_ptrINS_11GuildMemberEEENS1_8weak_ptrIKNS_13GatewaySocketEEE","__ZN7discord17LobbyMemberHandleC1ENSt3__110shared_ptrINS_11LobbyMemberEEENS2_IKNS_5state7LobbiesEEENS1_8weak_ptrIKNS_13GatewaySocketEEE","__ZN7discord17LobbyMemberHandleC2ENSt3__110shared_ptrINS_11LobbyMemberEEENS2_IKNS_5state7LobbiesEEENS1_8weak_ptrIKNS_13GatewaySocketEEE","__ZN7discord18RelationshipHandleC1ENSt3__110shared_ptrINS_12RelationshipEEES4_NS2_IKNS_5state5UsersEEE","__ZN7discord18RelationshipHandleC2ENSt3__110shared_ptrINS_12RelationshipEEES4_NS2_IKNS_5state5UsersEEE","__ZN7discord18StatusTypeToStringENS_10StatusTypeE","__ZN7discord18StringToStatusTypeERKNSt3__112basic_stringIcNS0_11char_traitsIcEENS0_9allocatorIcEEEE","__ZN7discord22UserApplicationProfile8FromJsonERKN4Json5ValueE","__ZN7discord22UserApplicationProfileC1ERKN4Json5ValueE","__ZN7discord22UserApplicationProfileC2ERKN4Json5ValueE","__ZN7discord28UserApplicationProfileHandleC1ENSt3__110shared_ptrINS_22UserApplicationProfileEEENS2_IKNS_5state5UsersEEE","__ZN7discord28UserApplicationProfileHandleC2ENSt3__110shared_ptrINS_22UserApplicationProfileEEENS2_IKNS_5state5UsersEEE","__ZN7discord5Guild8FromJsonERKN4Json5ValueE","__ZN7discord5GuildC1ERKN4Json5ValueE","__ZN7discord5GuildC2ERKN4Json5ValueE","__ZN7discord5Lobby12RemoveMemberEy","__ZN7discord5Lobby17AddOrUpdateMemberEyRKN4Json5ValueE","__ZN7discord5Lobby8FromJsonERKN4Json5ValueE","__ZN7discord5LobbyC1ERKN4Json5ValueE","__ZN7discord5LobbyC2ERKN4Json5ValueE","__ZN7discord5voice10Connection11ConnectUserENSt3__112basic_stringIcNS2_11char_traitsIcEENS2_9allocatorIcEEEEjRNS2_6vectorIjNS6_IjEEEEbfb","__ZN7discord5voice10Connection11StartReplayEv","__ZN7discord5voice10Connection12SetPTTActiveEbbb","__ZN7discord5voice10Connection13ApplySettingsERKNS_18ConnectionSettingsE","__ZN7discord5voice10Connection13ApplySettingsERKNS_18ConnectionSettingsENSt3__117basic_string_viewIcNS5_11char_traitsIcEEEE","__ZN7discord5voice10Connection14DisconnectUserERKNSt3__112basic_stringIcNS2_11char_traitsIcEENS2_9allocatorIcEEEE","__ZN7discord5voice10Connection14GetPacketStatsENSt3__18functionIFvNS_5stats6PacketEEEE","__ZN7discord5voice10Connection15GetFrameOpStatsENSt3__18functionIFvNS_5stats7FrameOpEEEE","__ZN7discord5voice10Connection16DisableUserVideoERKNSt3__112basic_stringIcNS2_11char_traitsIcEENS2_9allocatorIcEEEEb","__ZN7discord5voice10Connection16FastUdpReconnectEv","__ZN7discord5voice10Connection16GetMLSKeyPackageENSt3__18functionIFvRKNS2_6vectorIhNS2_9allocatorIhEEEEEEE","__ZN7discord5voice10Connection16GetUserMuteStateERKNSt3__112basic_stringIcNS2_11char_traitsIcEENS2_9allocatorIcEEEE","__ZN7discord5voice10Connection16SetDesktopSourceENSt3__112basic_stringIcNS2_11char_traitsIcEENS2_9allocatorIcEEEENS_19DesktopCapturerTypeENS0_20DesktopSourceOptionsE","__ZN7discord5voice10Connection16SetGoLiveDevicesENSt3__112basic_stringIcNS2_11char_traitsIcEENS2_9allocatorIcEEEES8_","__ZN7discord5voice10Connection17GetVideoSendStatsENSt3__18functionIFvNS_5stats9VideoSendEEEE","__ZN7discord5voice10Connection17ProcessMLSWelcomeEtNSt3__16vectorIhNS2_9allocatorIhEEEENS2_8functionIFvNS2_8optionalINS2_3mapIyS6_NS2_4lessIyEENS4_INS2_4pairIKyS6_EEEEEEEEtEEE","__ZN7discord5voice10Connection17SetClipRecordUserERKNSt3__112basic_stringIcNS2_11char_traitsIcEENS2_9allocatorIcEEEENS0_12ClipDataTypeEb","__ZN7discord5voice10Connection17SetUserPlayoutPanERKNSt3__112basic_stringIcNS2_11char_traitsIcEENS2_9allocatorIcEEEEff","__ZN7discord5voice10Connection17SetVideoBroadcastEb","__ZN7discord5voice10Connection18ClearDesktopSourceEv","__ZN7discord5voice10Connection18ClearGoLiveDevicesEv","__ZN7discord5voice10Connection18GetEncryptionModesENSt3__18functionIFvRKNS2_6vectorINS2_12basic_stringIcNS2_11char_traitsIcEENS2_9allocatorIcEEEENS8_ISA_EEEEEEE","__ZN7discord5voice10Connection18SetOnVideoCallbackENSt3__18functionIFvRKNS2_12basic_stringIcNS2_11char_traitsIcEENS2_9allocatorIcEEEEjSB_RKNS2_6vectorINS_16StreamParametersENS7_ISD_EEEEEEE","__ZN7discord5voice10Connection19ProcessMLSProposalsENSt3__16vectorIhNS2_9allocatorIhEEEENS2_8functionIFvRKS6_EEE","__ZN7discord5voice10Connection20GetUserPlayoutVolumeERKNSt3__112basic_stringIcNS2_11char_traitsIcEENS2_9allocatorIcEEEE","__ZN7discord5voice10Connection20IsRemoteUserSpeakingERKNSt3__112basic_stringIcNS2_11char_traitsIcEENS2_9allocatorIcEEEE","__ZN7discord5voice10Connection20SetUserPlayoutVolumeERKNSt3__112basic_stringIcNS2_11char_traitsIcEENS2_9allocatorIcEEEEf","__ZN7discord5voice10Connection21GetPTTActivationStateENSt3__16chrono8durationIxNS2_5ratioILl1ELl1000EEEEE","__ZN7discord5voice10Connection21SetRemoteUserSpeakingERKNSt3__112basic_stringIcNS2_11char_traitsIcEENS2_9allocatorIcEEEEjb","__ZN7discord5voice10Connection21StartMp3LocalPlaybackENSt3__112basic_stringIcNS2_11char_traitsIcEENS2_9allocatorIcEEEEfNS2_10shared_ptrINS2_6vectorIhNS6_IhEEEEEENS2_8functionIFviS8_EEE","__ZN7discord5voice10Connection21StartOggLocalPlaybackENSt3__112basic_stringIcNS2_11char_traitsIcEENS2_9allocatorIcEEEEfNS2_10shared_ptrINS_5media12audio_coding9OggReaderEEENS2_8functionIFviS8_EEE","__ZN7discord5voice10Connection23SetOnDesktopSourceEndedENSt3__18functionIFviNS_8OptionalIxEEEEE","__ZN7discord5voice10Connection23SetOnFirstFrameCallbackENSt3__18functionIFvRKNS2_12basic_stringIcNS2_11char_traitsIcEENS2_9allocatorIcEEEEjSB_EEE","__ZN7discord5voice10Connection23SetOnMLSFailureCallbackENSt3__18functionIFvRKNS2_12basic_stringIcNS2_11char_traitsIcEENS2_9allocatorIcEEEESB_EEE","__ZN7discord5voice10Connection23SetOnSoundshareCallbackENSt3__18functionIFvbEEE","__ZN7discord5voice10Connection23UpdateMLSExternalSenderENSt3__16vectorIhNS2_9allocatorIhEEEE","__ZN7discord5voice10Connection24PrepareSecureFramesEpochEyty","__ZN7discord5voice10Connection24SetOnRtcpMessageCallbackENSt3__18functionIFvNS2_12basic_stringIcNS2_11char_traitsIcEENS2_9allocatorIcEEEES9_EEE","__ZN7discord5voice10Connection24StopSamplesLocalPlaybackENSt3__112basic_stringIcNS2_11char_traitsIcEENS2_9allocatorIcEEEE","__ZN7discord5voice10Connection25GetMLSPairwiseFingerprintEtNSt3__112basic_stringIcNS2_11char_traitsIcEENS2_9allocatorIcEEEENS2_8functionIFvRKNS2_6vectorIhNS6_IhEEEEEEE","__ZN7discord5voice10Connection25SetMLSTransientPrivateKeyENSt3__112basic_stringIcNS2_11char_traitsIcEENS2_9allocatorIcEEEEi","__ZN7discord5voice10Connection25StartSamplesLocalPlaybackENSt3__112basic_stringIcNS2_11char_traitsIcEENS2_9allocatorIcEEEEifNS2_6vectorINS9_IfNS6_IfEEEENS6_ISB_EEEENS2_8functionIFviS8_EEE","__ZN7discord5voice10Connection26PrepareMLSCommitTransitionEtNSt3__16vectorIhNS2_9allocatorIhEEEENS2_8functionIFvNS2_8optionalINS2_3mapIyS6_NS2_4lessIyEENS4_INS2_4pairIKyS6_EEEEEEEEtEEE","__ZN7discord5voice10Connection26PresentDesktopSourcePickerERKNSt3__112basic_stringIcNS2_11char_traitsIcEENS2_9allocatorIcEEEE","__ZN7discord5voice10Connection27StopAllSamplesLocalPlaybackEv","__ZN7discord5voice10Connection28SetOnSoundshareEndedCallbackENSt3__18functionIFvvEEE","__ZN7discord5voice10Connection28SetRemoteUserCanHavePriorityERKNSt3__112basic_stringIcNS2_11char_traitsIcEENS2_9allocatorIcEEEEb","__ZN7discord5voice10Connection29ExecuteSecureFramesTransitionEt","__ZN7discord5voice10Connection29PrepareSecureFramesTransitionEttNSt3__18functionIFvvEEE","__ZN7discord5voice10Connection29SetOnSoundshareFailedCallbackENSt3__18functionIFvjNS2_12basic_stringIcNS2_11char_traitsIcEENS2_9allocatorIcEEEEbEEE","__ZN7discord5voice10Connection30SetDesktopSourceStatusCallbackENSt3__18functionIFvNS2_12basic_stringIcNS2_11char_traitsIcEENS2_9allocatorIcEEEEEEE","__ZN7discord5voice10Connection33SetOnVideoEncoderFallbackCallbackENSt3__18functionIFvNS2_12basic_stringIcNS2_11char_traitsIcEENS2_9allocatorIcEEEEEEE","__ZN7discord5voice10Connection34SetSecureFramesStateUpdateCallbackENSt3__18functionIFvNS0_23SecureFramesStateUpdateEEEE","__ZN7discord5voice10Connection37SetOnFirstFrameDeliveredStatsCallbackENSt3__18functionIFvRKNS_24VideoFrameDeliveredStatsEEEE","__ZN7discord5voice10Connection37SetOnFirstFrameEncryptedStatsCallbackENSt3__18functionIFvRKNS_24VideoFrameEncryptedStatsEEEE","__ZN7discord5voice10Connection8GetStatsENSt3__18functionIFvNS2_12basic_stringIcNS2_11char_traitsIcEENS2_9allocatorIcEEEEEEENS0_11StatsFilterE","__ZN7discord5voice10Connection8MuteUserERKNSt3__112basic_stringIcNS2_11char_traitsIcEENS2_9allocatorIcEEEEb","__ZN7discord6Client10ClientInitEv","__ZN7discord6Client10DisconnectEv","__ZN7discord6Client10EndStreamsENSt3__18functionIFvvEEE","__ZN7discord6Client10EndStreamsEv","__ZN7discord6Client10LeaveLobbyEyNSt3__18functionIFvNS_12ClientResultEEEE","__ZN7discord6Client10SetAecDumpEb","__ZN7discord6Client11DeleteLobbyENSt3__112basic_stringIcNS1_11char_traitsIcEENS1_9allocatorIcEEEEyNS1_8functionIFvNS_12ClientResultEyEEE","__ZN7discord6Client11RevokeTokenEyNSt3__112basic_stringIcNS1_11char_traitsIcEENS1_9allocatorIcEEEENS1_8functionIFvNS_12ClientResultEEEE","__ZN7discord6Client11SetSelfDeafEb","__ZN7discord6Client11SetSelfMuteEb","__ZN7discord6Client11SetStatusIfENS0_6StatusES1_","__ZN7discord6Client11UnblockUserEyNSt3__18functionIFvNS_12ClientResultEEEE","__ZN7discord6Client11UpdateTokenENS_4auth22AuthorizationTokenTypeERKNSt3__112basic_stringIcNS3_11char_traitsIcEENS3_9allocatorIcEEEE","__ZN7discord6Client11UpdateTokenENS_4auth22AuthorizationTokenTypeERKNSt3__112basic_stringIcNS3_11char_traitsIcEENS3_9allocatorIcEEEENS3_8functionIFvNS_12ClientResultEEEE","__ZN7discord6Client11WatchStreamENS_9StreamKeyE","__ZN7discord6Client12CreateStreamEv","__ZN7discord6Client12CreateStreamEy","__ZN7discord6Client12GetDmChannelEyNSt3__18functionIFvyyNS_14HttpStatusCodeEEEE","__ZN7discord6Client12OnGatewayUrlEONSt3__112basic_stringIcNS1_11char_traitsIcEENS1_9allocatorIcEEEE","__ZN7discord6Client12RefreshTokenEyNSt3__112basic_stringIcNS1_11char_traitsIcEENS1_9allocatorIcEEEENS1_8functionIFvNS_12ClientResultES7_S7_NS_4auth22AuthorizationTokenTypeEiS7_EEE","__ZN7discord6Client12StopWatchingENS_9StreamKeyE","__ZN7discord6Client12StopWatchingENS_9StreamKeyENSt3__18functionIFvvEEE","__ZN7discord6Client13ErrorToStringENS0_5ErrorE","__ZN7discord6Client13GetStreamInfoENS_9StreamKeyE","__ZN7discord6Client13GetUserGuildsENSt3__18functionIFvNS_12ClientResultENS1_6vectorINS_12GuildMinimalENS1_9allocatorIS5_EEEEEEE","__ZN7discord6Client14AbortAuthorizeEv","__ZN7discord6Client14AddLogCallbackENSt3__18functionIFvRKNS1_12basic_stringIcNS1_11char_traitsIcEENS1_9allocatorIcEEEENS_15LoggingSeverityEEEESB_","__ZN7discord6Client14CreateNewLobbyENSt3__112basic_stringIcNS1_11char_traitsIcEENS1_9allocatorIcEEEENS1_8functionIFvNS_12ClientResultEyEEE","__ZN7discord6Client14GetInputVolumeEv","__ZN7discord6Client14GetVersionHashEv","__ZN7discord6Client14OnActivityJoinEyNSt3__112basic_stringIcNS1_11char_traitsIcEENS1_9allocatorIcEEEE","__ZN7discord6Client14SetAdvancedVADEb","__ZN7discord6Client14SetInputDeviceERKNSt3__112basic_stringIcNS1_11char_traitsIcEENS1_9allocatorIcEEEE","__ZN7discord6Client14SetInputDeviceERKNSt3__112basic_stringIcNS1_11char_traitsIcEENS1_9allocatorIcEEEENS1_8functionIFvNS_12ClientResultEEEE","__ZN7discord6Client14SetInputVolumeEf","__ZN7discord6Client14SetSelfDeafAllEb","__ZN7discord6Client14SetSelfMuteAllEb","__ZN7discord6Client14SetShowingChatEb","__ZN7discord6Client14SetSpeakerModeEb","__ZN7discord6Client14SetStatusErrorENS0_6StatusENS0_5ErrorEi","__ZN7discord6Client14SetStatusIfNotENS0_6StatusES1_","__ZN7discord6Client14SetVoiceLogDirENSt3__112basic_stringIcNS1_11char_traitsIcEENS1_9allocatorIcEEEENS_15LoggingSeverityE","__ZN7discord6Client14StatusToStringENS0_6StatusE","__ZN7discord6Client14ThreadToStringENS0_6ThreadE","__ZN7discord6Client15ConnectInternalENSt3__112basic_stringIcNS1_11char_traitsIcEENS1_9allocatorIcEEEE","__ZN7discord6Client15EditUserMessageEyyNSt3__112basic_stringIcNS1_11char_traitsIcEENS1_9allocatorIcEEEENS1_8functionIFvNS_12ClientResultEEEE","__ZN7discord6Client15EndCallInternalEyNSt3__18functionIFvvEEE","__ZN7discord6Client15GetInputDevicesENSt3__18functionIFvRKNS1_6vectorINS_11AudioDeviceENS1_9allocatorIS4_EEEEEEE","__ZN7discord6Client15GetOutputVolumeEv","__ZN7discord6Client15GetVersionMajorEv","__ZN7discord6Client15GetVersionMinorEv","__ZN7discord6Client15GetVersionPatchEv","__ZN7discord6Client15SendUserMessageEyNSt3__112basic_stringIcNS1_11char_traitsIcEENS1_9allocatorIcEEEENS1_8functionIFvNS_12ClientResultEyEEE","__ZN7discord6Client15SetOnlineStatusENS_10StatusTypeENSt3__18functionIFvNS_12ClientResultEEEE","__ZN7discord6Client15SetOutputDeviceERKNSt3__112basic_stringIcNS1_11char_traitsIcEENS1_9allocatorIcEEEE","__ZN7discord6Client15SetOutputDeviceERKNSt3__112basic_stringIcNS1_11char_traitsIcEENS1_9allocatorIcEEEENS1_8functionIFvNS_12ClientResultEEEE","__ZN7discord6Client15SetOutputVolumeEf","__ZN7discord6Client15SetupRpcManagerEv","__ZN7discord6Client16EndCallsInternalENSt3__18functionIFvvEEE","__ZN7discord6Client16FetchCurrentUserENS_4auth22AuthorizationTokenTypeENSt3__112basic_stringIcNS3_11char_traitsIcEENS3_9allocatorIcEEEENS3_8functionIFvNS_12ClientResultEyRKS9_EEE","__ZN7discord6Client16GetApplicationIdEv","__ZN7discord6Client16GetGuildChannelsEyNSt3__18functionIFvNS_12ClientResultENS1_6vectorINS_12GuildChannelENS1_9allocatorIS5_EEEEEEE","__ZN7discord6Client16GetOutputDevicesENSt3__18functionIFvRKNS1_6vectorINS_11AudioDeviceENS1_9allocatorIS4_EEEEEEE","__ZN7discord6Client16InitializeStreamEyy","__ZN7discord6Client16RemoveGameFriendEyNSt3__18functionIFvNS_12ClientResultEEEE","__ZN7discord6Client16SendLobbyMessageEyNSt3__112basic_stringIcNS1_11char_traitsIcEENS1_9allocatorIcEEEENS1_8functionIFvNS_12ClientResultEyEEE","__ZN7discord6Client16SetApplicationIdEy","__ZN7discord6Client16SetGameWindowPidEi","__ZN7discord6Client17ClearRichPresenceEv","__ZN7discord6Client17CreateOrJoinLobbyENSt3__112basic_stringIcNS1_11char_traitsIcEENS1_9allocatorIcEEEENS1_13unordered_mapIS7_S7_NS1_4hashIS7_EENS1_8equal_toIS7_EENS5_INS1_4pairIKS7_S7_EEEEEESH_NS1_8functionIFvNS_12ClientResultEyEEE","__ZN7discord6Client17CreateOrJoinLobbyENSt3__112basic_stringIcNS1_11char_traitsIcEENS1_9allocatorIcEEEENS1_8functionIFvNS_12ClientResultEyEEE","__ZN7discord6Client17DeleteUserMessageEyyNSt3__18functionIFvNS_12ClientResultEEEE","__ZN7discord6Client17RemoveLobbyMemberENSt3__112basic_stringIcNS1_11char_traitsIcEENS1_9allocatorIcEEEEyyNS1_8functionIFvNS_12ClientResultEyyEEE","__ZN7discord6Client17SetThreadPriorityENS0_6ThreadEi","__ZN7discord6Client17StartCallInternalEybNSt3__18functionIFvyPsmimRbEEENS2_IFvS3_mimEEE","__ZN7discord6Client18AcquireAudioEngineENSt3__18functionIFvvEEE","__ZN7discord6Client18ExchangeChildTokenENSt3__112basic_stringIcNS1_11char_traitsIcEENS1_9allocatorIcEEEEyNS1_8functionIFvNS_12ClientResultES7_NS_4auth22AuthorizationTokenTypeEiS7_EEE","__ZN7discord6Client18ForceCrash_ForTestEv","__ZN7discord6Client18GetTokenFromDeviceENS_4auth23DeviceAuthorizationArgsENSt3__18functionIFvNS_12ClientResultENS3_12basic_stringIcNS3_11char_traitsIcEENS3_9allocatorIcEEEESB_NS1_22AuthorizationTokenTypeEiSB_EEE","__ZN7discord6Client18LinkChannelToLobbyEyyNSt3__18functionIFvNS_12ClientResultEEEE","__ZN7discord6Client18ReleaseAudioEngineENSt3__18functionIFvvEEE","__ZN7discord6Client18SendActivityInviteEyNSt3__112basic_stringIcNS1_11char_traitsIcEENS1_9allocatorIcEEEENS1_8functionIFvNS_12ClientResultEEEE","__ZN7discord6Client18UpdateRichPresenceENSt3__110unique_ptrINS_8ActivityENS1_14default_deleteIS3_EEEENS1_8functionIFvNS_12ClientResultEEEE","__ZN7discord6Client19AddGameRelationshipEyNS_16RelationshipTypeENSt3__18functionIFvNS_12ClientResultEEEE","__ZN7discord6Client19AddVoiceLogCallbackENSt3__18functionIFvRKNS1_12basic_stringIcNS1_11char_traitsIcEENS1_9allocatorIcEEEENS_15LoggingSeverityEEEESB_","__ZN7discord6Client19GetProvisionalTokenEyNS_4auth30AuthenticationExternalAuthTypeENSt3__112basic_stringIcNS3_11char_traitsIcEENS3_9allocatorIcEEEENS3_8functionIFvNS_12ClientResultES9_S9_NS1_22AuthorizationTokenTypeEiS9_EEE","__ZN7discord6Client19GetSoundboardVolumeEv","__ZN7discord6Client19SetEchoCancellationEb","__ZN7discord6Client19SetNoiseSuppressionEb","__ZN7discord6Client19SetSoundboardVolumeEf","__ZN7discord6Client19UpdateTokenInternalENS_4auth22AuthorizationTokenTypeERKNSt3__112basic_stringIcNS3_11char_traitsIcEENS3_9allocatorIcEEEE","__ZN7discord6Client20AcceptActivityInviteENS_14ActivityInviteENSt3__18functionIFvNS_12ClientResultENS2_12basic_stringIcNS2_11char_traitsIcEENS2_9allocatorIcEEEEEEE","__ZN7discord6Client20JoinLinkedLobbyGuildEyNSt3__18functionIFvvEEENS2_IFvNS_12ClientResultERKNS1_12basic_stringIcNS1_11char_traitsIcEENS1_9allocatorIcEEEEEEE","__ZN7discord6Client20OpenMessageInDiscordEyNSt3__18functionIFvvEEENS2_IFvNS_12ClientResultEEEE","__ZN7discord6Client20SetNoiseCancellationEb","__ZN7discord6Client20ShowAudioRoutePickerEv","__ZN7discord6Client21EnsureDiscordInstanceEv","__ZN7discord6Client21GetCurrentInputDeviceENSt3__18functionIFvRKNS_11AudioDeviceEEEE","__ZN7discord6Client21IsDiscordAppInstalledENSt3__18functionIFvbEEE","__ZN7discord6Client21RegisterLaunchCommandEyRKNSt3__112basic_stringIcNS1_11char_traitsIcEENS1_9allocatorIcEEEE","__ZN7discord6Client21ResolveActivityAssetsENSt3__110unique_ptrINS_8ActivityENS1_14default_deleteIS3_EEEENS1_8functionIFvbRKNS1_12basic_stringIcNS1_11char_traitsIcEENS1_9allocatorIcEEEES6_EEE","__ZN7discord6Client21SendGameFriendRequestENSt3__112basic_stringIcNS1_11char_traitsIcEENS1_9allocatorIcEEEENS1_8functionIFvNS_12ClientResultEEEE","__ZN7discord6Client21SetHttpRequestTimeoutEi","__ZN7discord6Client21SetOpusHardwareCodingEbb","__ZN7discord6Client21SetSelfMuteAndDeafAllERKbS2_","__ZN7discord6Client21UpdateRichPresenceRpcEPKNS_8ActivityENSt3__18functionIFvNS_12ClientResultEEEE","__ZN7discord6Client22AddDiscordRelationshipEyNS_16RelationshipTypeENSt3__18functionIFvNS_12ClientResultEEEE","__ZN7discord6Client22AddOrUpdateLobbyMemberENSt3__112basic_stringIcNS1_11char_traitsIcEENS1_9allocatorIcEEEEyyNS1_13unordered_mapIS7_S7_NS1_4hashIS7_EENS1_8equal_toIS7_EENS5_INS1_4pairIKS7_S7_EEEEEENS_16LobbyMemberFlagsENS1_8functionIFvNS_12ClientResultEyyEEE","__ZN7discord6Client22GetCurrentOutputDeviceENSt3__18functionIFvRKNS_11AudioDeviceEEEE","__ZN7discord6Client22RemoveGameRelationshipEyNSt3__18functionIFvNS_12ClientResultEEEE","__ZN7discord6Client22SetInputDeviceInternalERKNSt3__112basic_stringIcNS1_11char_traitsIcEENS1_9allocatorIcEEEENS1_8functionIFvNS_12ClientResultEEEE","__ZN7discord6Client22SetUserUpdatedCallbackENSt3__18functionIFvyEEE","__ZN7discord6Client22UnlinkChannelFromLobbyEyNSt3__18functionIFvNS_12ClientResultEEEE","__ZN7discord6Client23AbortGetTokenFromDeviceEv","__ZN7discord6Client23AcceptGameFriendRequestEyNSt3__18functionIFvNS_12ClientResultEEEE","__ZN7discord6Client23CanOpenMessageInDiscordEy","__ZN7discord6Client23CancelGameFriendRequestEyNSt3__18functionIFvNS_12ClientResultEEEE","__ZN7discord6Client23GetUserMessageSummariesENSt3__18functionIFvNS_12ClientResultENS1_6vectorINS_18UserMessageSummaryENS1_9allocatorIS5_EEEEEEE","__ZN7discord6Client23RejectGameFriendRequestEyNSt3__18functionIFvNS_12ClientResultEEEE","__ZN7discord6Client23SendActivityJoinRequestEyNSt3__18functionIFvNS_12ClientResultEEEE","__ZN7discord6Client23SetActivityJoinCallbackENSt3__18functionIFvNS1_12basic_stringIcNS1_11char_traitsIcEENS1_9allocatorIcEEEEEEE","__ZN7discord6Client23SetAutomaticGainControlEb","__ZN7discord6Client23SetDeviceChangeCallbackENSt3__18functionIFvRKNS1_6vectorINS_11AudioDeviceENS1_9allocatorIS4_EEEES9_EEE","__ZN7discord6Client23SetLobbyCreatedCallbackENSt3__18functionIFvyEEE","__ZN7discord6Client23SetLobbyDeletedCallbackENSt3__18functionIFvyEEE","__ZN7discord6Client23SetLobbyUpdatedCallbackENSt3__18functionIFvyEEE","__ZN7discord6Client23SetNoAudioInputCallbackENSt3__18functionIFvbEEE","__ZN7discord6Client23SetOutputDeviceInternalERKNSt3__112basic_stringIcNS1_11char_traitsIcEENS1_9allocatorIcEEEENS1_8functionIFvNS_12ClientResultEEEE","__ZN7discord6Client24GetUserMessagesWithLimitEyiNSt3__18functionIFvNS_12ClientResultENS1_6vectorINS_13MessageHandleENS1_9allocatorIS5_EEEEEEE","__ZN7discord6Client24SendDiscordFriendRequestENSt3__112basic_stringIcNS1_11char_traitsIcEENS1_9allocatorIcEEEENS1_8functionIFvNS_12ClientResultEEEE","__ZN7discord6Client24SetNoAudioInputThresholdEf","__ZN7discord6Client24SetStatusChangedCallbackENSt3__18functionIFvNS0_6StatusENS0_5ErrorEiEEE","__ZN7discord6Client24SetStreamChangedCallbackENSt3__18functionIFvRKNS_9StreamKeyEEEE","__ZN7discord6Client25GetLobbyMessagesWithLimitEyiNSt3__18functionIFvNS_12ClientResultENS1_6vectorINS_13MessageHandleENS1_9allocatorIS5_EEEEEEE","__ZN7discord6Client25GetProvisionalTokenBotAPIEyNSt3__112basic_stringIcNS1_11char_traitsIcEENS1_9allocatorIcEEEES7_S7_NS1_8functionIFvNS_12ClientResultES7_S7_NS_4auth22AuthorizationTokenTypeEiS7_EEE","__ZN7discord6Client25OpenAuthorizeDeviceScreenEyNSt3__112basic_stringIcNS1_11char_traitsIcEENS1_9allocatorIcEEEE","__ZN7discord6Client25RemoveDiscordRelationshipEyNSt3__18functionIFvNS_12ClientResultEEEE","__ZN7discord6Client25SendGameFriendRequestByIdEyNSt3__18functionIFvNS_12ClientResultEEEE","__ZN7discord6Client25SetChannelChangedCallbackENSt3__18functionIFvyEEE","__ZN7discord6Client25SetMessageCreatedCallbackENSt3__18functionIFvyEEE","__ZN7discord6Client25SetMessageDeletedCallbackENSt3__18functionIFvyyEEE","__ZN7discord6Client25SetMessageUpdatedCallbackENSt3__18functionIFvyEEE","__ZN7discord6Client25SetNoiseCancellationModelENS0_22NoiseCancellationModelE","__ZN7discord6Client26AcceptDiscordFriendRequestEyNSt3__18functionIFvNS_12ClientResultEEEE","__ZN7discord6Client26CancelDiscordFriendRequestEyNSt3__18functionIFvNS_12ClientResultEEEE","__ZN7discord6Client26CloseAuthorizeDeviceScreenEv","__ZN7discord6Client26RejectDiscordFriendRequestEyNSt3__18functionIFvNS_12ClientResultEEEE","__ZN7discord6Client26RemoveDiscordAndGameFriendEyNSt3__18functionIFvNS_12ClientResultEEEE","__ZN7discord6Client26SetPresenceChangedCallbackENSt3__18functionIFvyEEE","__ZN7discord6Client26SetTokenExpirationCallbackENSt3__18functionIFvvEEE","__ZN7discord6Client26StreamSettingsPremiumLevelEjj","__ZN7discord6Client27EndStreamForChannelInternalEyyNSt3__18functionIFvvEEE","__ZN7discord6Client27HasRecentActivityJoinInviteEyRKNSt3__112basic_stringIcNS1_11char_traitsIcEENS1_9allocatorIcEEEE","__ZN7discord6Client27SendUserMessageWithMetadataEyNSt3__112basic_stringIcNS1_11char_traitsIcEENS1_9allocatorIcEEEENS1_13unordered_mapIS7_S7_NS1_4hashIS7_EENS1_8equal_toIS7_EENS5_INS1_4pairIKS7_S7_EEEEEENS1_8functionIFvNS_12ClientResultEyEEE","__ZN7discord6Client27SetLobbyMemberAddedCallbackENSt3__18functionIFvyyEEE","__ZN7discord6Client28EndAllStreamsForCallInternalEyNSt3__18functionIFvvEEE","__ZN7discord6Client28GetTokenFromProvisionalMergeEyNSt3__112basic_stringIcNS1_11char_traitsIcEENS1_9allocatorIcEEEES7_S7_NS_4auth30AuthenticationExternalAuthTypeES7_NS1_8functionIFvNS_12ClientResultES7_S7_NS8_22AuthorizationTokenTypeEiS7_EEE","__ZN7discord6Client28SendActivityJoinRequestReplyENS_14ActivityInviteENSt3__18functionIFvNS_12ClientResultEEEE","__ZN7discord6Client28SendDiscordFriendRequestByIdEyNSt3__18functionIFvNS_12ClientResultEEEE","__ZN7discord6Client28SendLobbyMessageWithMetadataEyNSt3__112basic_stringIcNS1_11char_traitsIcEENS1_9allocatorIcEEEENS1_13unordered_mapIS7_S7_NS1_4hashIS7_EENS1_8equal_toIS7_EENS5_INS1_4pairIKS7_S7_EEEEEENS1_8functionIFvNS_12ClientResultEyEEE","__ZN7discord6Client28SendSetSuppressNotificationsEv","__ZN7discord6Client28SetEngineManagedAudioSessionEb","__ZN7discord6Client28UpdateUserApplicationProfileENSt3__112basic_stringIcNS1_11char_traitsIcEENS1_9allocatorIcEEEEyyS7_S7_NS1_13unordered_mapIS7_S7_NS1_4hashIS7_EENS1_8equal_toIS7_EENS5_INS1_4pairIKS7_S7_EEEEEENS1_8functionIFvNS_12ClientResultEEEE","__ZN7discord6Client29GetCurrentInputDeviceInternalENSt3__18functionIFvRKNS_11AudioDeviceEEEE","__ZN7discord6Client29ProvisionalUserMergeCompletedEb","__ZN7discord6Client29SetGuildMemberChangedCallbackENSt3__18functionIFvyyEEE","__ZN7discord6Client29SetLobbyMemberRemovedCallbackENSt3__18functionIFvyyEEE","__ZN7discord6Client29SetLobbyMemberUpdatedCallbackENSt3__18functionIFvyyEEE","__ZN7discord6Client29UnmergeIntoProvisionalAccountEyNS_4auth30AuthenticationExternalAuthTypeENSt3__112basic_stringIcNS3_11char_traitsIcEENS3_9allocatorIcEEEENS3_8functionIFvNS_12ClientResultEEEE","__ZN7discord6Client30GetCurrentOutputDeviceInternalENSt3__18functionIFvRKNS_11AudioDeviceEEEE","__ZN7discord6Client30NoiseCancellationModelToStringENS0_22NoiseCancellationModelE","__ZN7discord6Client30RegisterLaunchSteamApplicationEyj","__ZN7discord6Client30RemoveAuthorizeRequestCallbackEv","__ZN7discord6Client30SetRelationshipCreatedCallbackENSt3__18functionIFvybEEE","__ZN7discord6Client30SetRelationshipDeletedCallbackENSt3__18functionIFvybEEE","__ZN7discord6Client31CreateAuthorizationCodeVerifierEv","__ZN7discord6Client32RegisterAuthorizeRequestCallbackENSt3__18functionIFvvEEE","__ZN7discord6Client32SetActivityInviteCreatedCallbackENSt3__18functionIFvNS_14ActivityInviteEEEE","__ZN7discord6Client32SetActivityInviteUpdatedCallbackENSt3__18functionIFvNS_14ActivityInviteEEEE","__ZN7discord6Client33PerformOnThreadWithString_ForTestENSt3__112basic_stringIcNS1_11char_traitsIcEENS1_9allocatorIcEEEENS1_8functionIFvRKS7_EEE","__ZN7discord6Client34AfterProvisionalUserMergeCompletedEb","__ZN7discord6Client34GetTokenFromDeviceProvisionalMergeENS_4auth23DeviceAuthorizationArgsENS1_30AuthenticationExternalAuthTypeENSt3__112basic_stringIcNS4_11char_traitsIcEENS4_9allocatorIcEEEENS4_8functionIFvNS_12ClientResultESA_SA_NS1_22AuthorizationTokenTypeEiSA_EEE","__ZN7discord6Client34SetVoiceParticipantChangedCallbackENSt3__18functionIFvyybEEE","__ZN7discord6Client35OpenConnectedGamesSettingsInDiscordENSt3__18functionIFvNS_12ClientResultEEEE","__ZN7discord6Client35UpdateProvisionalAccountDisplayNameENSt3__112basic_stringIcNS1_11char_traitsIcEENS1_9allocatorIcEEEENS1_8functionIFvNS_12ClientResultEEEE","__ZN7discord6Client36SetRelationshipGroupsUpdatedCallbackENSt3__18functionIFvyEEE","__ZN7discord6Client38SetActivityJoinWithApplicationCallbackENSt3__18functionIFvyNS1_12basic_stringIcNS1_11char_traitsIcEENS1_9allocatorIcEEEEEEE","__ZN7discord6Client38SetAuthorizeDeviceScreenClosedCallbackENSt3__18functionIFvvEEE","__ZN7discord6Client45SetAfterProvisionalUserMergeCompletedCallbackENSt3__18functionIFvbEEE","__ZN7discord6Client7CleanupEv","__ZN7discord6Client7ConnectERKNSt3__112basic_stringIcNS1_11char_traitsIcEENS1_9allocatorIcEEEE","__ZN7discord6Client7ConnectEv","__ZN7discord6Client7EndCallEv","__ZN7discord6Client7EndCallEy","__ZN7discord6Client7EndCallEyNSt3__18functionIFvvEEE","__ZN7discord6Client7GetCallEv","__ZN7discord6Client7GetCallEy","__ZN7discord6Client8EndCallsENSt3__18functionIFvvEEE","__ZN7discord6Client8EndCallsEv","__ZN7discord6Client8GetCallsEv","__ZN7discord6Client8GetTokenEyNSt3__112basic_stringIcNS1_11char_traitsIcEENS1_9allocatorIcEEEES7_S7_NS1_8functionIFvNS_12ClientResultES7_S7_NS_4auth22AuthorizationTokenTypeEiS7_EEE","__ZN7discord6Client9AuthorizeENS_4auth17AuthorizationArgsE","__ZN7discord6Client9AuthorizeENS_4auth17AuthorizationArgsENSt3__18functionIFvNS_12ClientResultERKNS3_12basic_stringIcNS3_11char_traitsIcEENS3_9allocatorIcEEEESD_EEE","__ZN7discord6Client9BlockUserEyNSt3__18functionIFvNS_12ClientResultEEEE","__ZN7discord6Client9EditLobbyENSt3__112basic_stringIcNS1_11char_traitsIcEENS1_9allocatorIcEEEEyNS1_13unordered_mapIS7_S7_NS1_4hashIS7_EENS1_8equal_toIS7_EENS5_INS1_4pairIKS7_S7_EEEEEENS1_8functionIFvNS_12ClientResultEyEEE","__ZN7discord6Client9EndStreamEv","__ZN7discord6Client9EndStreamEy","__ZN7discord6Client9EndStreamEyNSt3__18functionIFvvEEE","__ZN7discord6Client9SetLogDirENSt3__112basic_stringIcNS1_11char_traitsIcEENS1_9allocatorIcEEEENS_15LoggingSeverityE","__ZN7discord6Client9SetStatusENS0_6StatusE","__ZN7discord6Client9StartCallEy","__ZN7discord6Client9StartCallEyNSt3__18functionIFvyPsmimRbEEENS2_IFvS3_mimEEE","__ZN7discord6Client9StartCallEyb","__ZN7discord6ClientC1ENS_19ClientCreateOptionsE","__ZN7discord6ClientC1ERKNSt3__112basic_stringIcNS1_11char_traitsIcEENS1_9allocatorIcEEEES9_","__ZN7discord6ClientC1Ev","__ZN7discord6ClientC2ENS_19ClientCreateOptionsE","__ZN7discord6ClientC2ERKNSt3__112basic_stringIcNS1_11char_traitsIcEENS1_9allocatorIcEEEES9_","__ZN7discord6ClientC2Ev","__ZN7discord6ClientD1Ev","__ZN7discord6ClientD2Ev","__ZN7discord8Presence8FromJsonERKN4Json5ValueEyy","__ZN7discord8PresenceC1ENS_10StatusTypeE","__ZN7discord8PresenceC1ERKN4Json5ValueEyy","__ZN7discord8PresenceC2ENS_10StatusTypeE","__ZN7discord8PresenceC2ERKN4Json5ValueEyy","__ZNK7Discord14GetCodecSurveyENSt3__18functionIFvRKNS0_12basic_stringIcNS0_11char_traitsIcEENS0_9allocatorIcEEEEEEE","__ZNK7Discord20GetCodecCapabilitiesENSt3__18functionIFvRKNS0_12basic_stringIcNS0_11char_traitsIcEENS0_9allocatorIcEEEEEEE","__ZNK7Discord23GetSupportedVideoCodecsENSt3__18functionIFvRKNS0_6vectorINS0_12basic_stringIcNS0_11char_traitsIcEENS0_9allocatorIcEEEENS6_IS8_EEEEEEE","__ZNK7Discord42GetSupportedBandwidthEstimationExperimentsENSt3__18functionIFvRKNS0_6vectorINS0_12basic_stringIcNS0_11char_traitsIcEENS0_9allocatorIcEEEENS6_IS8_EEEEEEE","__ZNK7discord10UserHandle10GlobalNameEv","__ZNK7discord10UserHandle11DisplayNameEv","__ZNK7discord10UserHandle11PremiumTypeEv","__ZNK7discord10UserHandle12GameActivityEv","__ZNK7discord10UserHandle12IsMfaEnabledEv","__ZNK7discord10UserHandle12RelationshipEv","__ZNK7discord10UserHandle13DiscriminatorEv","__ZNK7discord10UserHandle13IsProvisionalEv","__ZNK7discord10UserHandle15LinkedAccountIdENSt3__18functionIFvNS1_8optionalINS1_12basic_stringIcNS1_11char_traitsIcEENS1_9allocatorIcEEEEEEEEE","__ZNK7discord10UserHandle23UserApplicationProfilesEv","__ZNK7discord10UserHandle2IdEv","__ZNK7discord10UserHandle5IsBotEv","__ZNK7discord10UserHandle6AvatarEv","__ZNK7discord10UserHandle6BannerEv","__ZNK7discord10UserHandle6StatusEv","__ZNK7discord10UserHandle8IsSystemEv","__ZNK7discord10UserHandle8PresenceEv","__ZNK7discord10UserHandle8UsernameEv","__ZNK7discord10UserHandle9AvatarUrlENS0_10AvatarTypeES1_","__ZNK7discord11GuildHandle10ChannelIdsEv","__ZNK7discord11GuildHandle11PremiumTierEv","__ZNK7discord11GuildHandle11UnavailableEv","__ZNK7discord11GuildHandle14GuildMemberIdsEv","__ZNK7discord11GuildHandle20GetGuildMemberHandleEy","__ZNK7discord11GuildHandle2IdEv","__ZNK7discord11GuildHandle4NameEv","__ZNK7discord11GuildHandle7IconUrlEv","__ZNK7discord11LobbyHandle12LobbyMembersEv","__ZNK7discord11LobbyHandle13LinkedChannelEv","__ZNK7discord11LobbyHandle14LobbyMemberIdsEv","__ZNK7discord11LobbyHandle17GetCallInfoHandleEv","__ZNK7discord11LobbyHandle20GetLobbyMemberHandleEy","__ZNK7discord11LobbyHandle2IdEv","__ZNK7discord11LobbyHandle8MetadataEv","__ZNK7discord13ChannelHandle10IsSystemDmEv","__ZNK7discord13ChannelHandle10RecipientsEv","__ZNK7discord13ChannelHandle17GetCallInfoHandleEv","__ZNK7discord13ChannelHandle2IdEv","__ZNK7discord13ChannelHandle4NameEv","__ZNK7discord13ChannelHandle4TypeEv","__ZNK7discord13ChannelHandle7BitrateEv","__ZNK7discord13ChannelHandle7IconUrlENS0_8IconTypeE","__ZNK7discord13ChannelHandle7OwnerIdEv","__ZNK7discord13ChannelHandle9RtcRegionEv","__ZNK7discord13ChannelHandle9UserLimitEv","__ZNK7discord13MessageHandle10RawContentEv","__ZNK7discord13MessageHandle11RecipientIdEv","__ZNK7discord13MessageHandle12SentFromGameEv","__ZNK7discord13MessageHandle13ApplicationIdEv","__ZNK7discord13MessageHandle13SentTimestampEv","__ZNK7discord13MessageHandle14DisclosureTypeEv","__ZNK7discord13MessageHandle15EditedTimestampEv","__ZNK7discord13MessageHandle17AdditionalContentEv","__ZNK7discord13MessageHandle18ModerationMetadataEv","__ZNK7discord13MessageHandle2IdEv","__ZNK7discord13MessageHandle5LobbyEv","__ZNK7discord13MessageHandle6AuthorEv","__ZNK7discord13MessageHandle7ChannelEv","__ZNK7discord13MessageHandle7ContentEv","__ZNK7discord13MessageHandle8AuthorIdEv","__ZNK7discord13MessageHandle8MetadataEv","__ZNK7discord13MessageHandle9ChannelIdEv","__ZNK7discord13MessageHandle9RecipientEv","__ZNK7discord14CallInfoHandle10GetStreamsEv","__ZNK7discord14CallInfoHandle15GetParticipantsEv","__ZNK7discord14CallInfoHandle19GetVoiceStateHandleEy","__ZNK7discord14CallInfoHandle7GuildIdEv","__ZNK7discord14CallInfoHandle9ChannelIdEv","__ZNK7discord14PresenceHandle12GameActivityEv","__ZNK7discord14PresenceHandle6StatusEv","__ZNK7discord16StreamInfoHandle11RtcServerIdEv","__ZNK7discord16StreamInfoHandle12RtcChannelIdEv","__ZNK7discord16StreamInfoHandle6PausedEv","__ZNK7discord16StreamInfoHandle6RegionEv","__ZNK7discord16StreamInfoHandle7ViewersEv","__ZNK7discord16StreamInfoHandle9StreamKeyEv","__ZNK7discord16VoiceStateHandle10SelfStreamEv","__ZNK7discord16VoiceStateHandle10ServerDeafEv","__ZNK7discord16VoiceStateHandle10ServerMuteEv","__ZNK7discord16VoiceStateHandle8SelfDeafEv","__ZNK7discord16VoiceStateHandle8SelfMuteEv","__ZNK7discord17GuildMemberHandle4DeafEv","__ZNK7discord17GuildMemberHandle4MuteEv","__ZNK7discord17GuildMemberHandle6AvatarEv","__ZNK7discord17GuildMemberHandle7IsGuestEv","__ZNK7discord17GuildMemberHandle8NickNameEv","__ZNK7discord17GuildMemberHandle8SelfDeafEv","__ZNK7discord17GuildMemberHandle8SelfMuteEv","__ZNK7discord17GuildMemberHandle9AvatarUrlEv","__ZNK7discord17LobbyMemberHandle12CanLinkLobbyEv","__ZNK7discord17LobbyMemberHandle2IdEv","__ZNK7discord17LobbyMemberHandle4UserEv","__ZNK7discord17LobbyMemberHandle8MetadataEv","__ZNK7discord17LobbyMemberHandle9ConnectedEv","__ZNK7discord18RelationshipHandle13IsSpamRequestEv","__ZNK7discord18RelationshipHandle20GameRelationshipTypeEv","__ZNK7discord18RelationshipHandle23DiscordRelationshipTypeEv","__ZNK7discord18RelationshipHandle2IdEv","__ZNK7discord18RelationshipHandle4TypeEv","__ZNK7discord18RelationshipHandle4UserEv","__ZNK7discord28UserApplicationProfileHandle10AvatarHashEv","__ZNK7discord28UserApplicationProfileHandle10ProviderIdEv","__ZNK7discord28UserApplicationProfileHandle12ProviderTypeEv","__ZNK7discord28UserApplicationProfileHandle20ProviderIssuedUserIdEv","__ZNK7discord28UserApplicationProfileHandle8MetadataEv","__ZNK7discord28UserApplicationProfileHandle8UsernameEv","__ZNK7discord6Client10IsDisabledENSt3__112basic_stringIcNS1_11char_traitsIcEENS1_9allocatorIcEEEE","__ZNK7discord6Client11GetGuildIdsEv","__ZNK7discord6Client11GetLobbyIdsEv","__ZNK7discord6Client11GetSelfDeafEv","__ZNK7discord6Client11GetSelfMuteEv","__ZNK7discord6Client14GetCurrentUserEv","__ZNK7discord6Client14GetDmAndGdmIdsEv","__ZNK7discord6Client14GetGuildHandleEy","__ZNK7discord6Client14GetLobbyHandleEy","__ZNK7discord6Client14GetSelfDeafAllEv","__ZNK7discord6Client14GetSelfMuteAllEv","__ZNK7discord6Client16GetChannelHandleEy","__ZNK7discord6Client16GetCurrentUserV2Ev","__ZNK7discord6Client16GetMessageHandleEy","__ZNK7discord6Client16GetRelationshipsEv","__ZNK7discord6Client16WeakPerformAsyncEONSt3__18functionIFvvEEE","__ZNK7discord6Client17GetPresenceHandleEy","__ZNK7discord6Client21GetRelationshipHandleEy","__ZNK7discord6Client23GetRelationshipsByGroupENS_21RelationshipGroupTypeE","__ZNK7discord6Client23SearchFriendsByUsernameERKNSt3__112basic_stringIcNS1_11char_traitsIcEENS1_9allocatorIcEEEE","__ZNK7discord6Client24AreStreamSettingsAllowedEyjj","__ZNK7discord6Client25GetFilteredFriendsByGroupERKNSt3__16vectorINS_18RelationshipHandleENS1_9allocatorIS3_EEEENS_21RelationshipGroupTypeE","__ZNK7discord6Client29GetDiscordClientConnectedUserEyNSt3__18functionIFvNS_12ClientResultENS1_8optionalINS_10UserHandleEEEEEE","__ZNK7discord6Client31ResolveMessageDeepLinkingFieldsEy","__ZNK7discord6Client7GetUserEy","__ZNK7discord6Client7IsReadyEv"]}},{"data":{"weak":["__ZTINSt3__117bad_function_callE","__ZTISt11logic_error","__ZTISt12length_error","__ZTISt12out_of_range","__ZTISt13runtime_error","__ZTISt16invalid_argument","__ZTISt20bad_array_new_length","__ZTISt9bad_alloc","__ZTISt9exception","__ZTSNSt3__117bad_function_callE","__ZTSSt11logic_error","__ZTSSt12length_error","__ZTSSt12out_of_range","__ZTSSt13runtime_error","__ZTSSt16invalid_argument","__ZTSSt20bad_array_new_length","__ZTSSt9bad_alloc","__ZTSSt9exception"]},"targets":["x86_64-macos"]}],"flags":[{"attributes":["not_app_extension_safe"]}],"install_names":[{"name":"@rpath/libdiscord_partner_sdk.dylib"}],"target_info":[{"min_deployment":"10.15","target":"x86_64-macos"},{"min_deployment":"11","target":"arm64-macos"}]},"tapi_tbd_version":5}
